target datalayout = "e-m:e-p270:32:32-p271:32:32-p272:64:64-i64:64-i128:128-f80:128-n8:16:32:64-S128"
target triple = "x86_64-pc-linux-gnu"

%struct.CoeffVLCs = type { [80 x ptr], [80 x %struct.VLC] }
%struct.VLC = type { i32, ptr, i32, i32 }
%union.AVRefStructOpaque = type { ptr }

; Function Attrs: cold nounwind optsize uwtable
define internal void @free_vlc_tables(ptr %0, ptr noundef %1) #1 {
  %3 = alloca %union.AVRefStructOpaque, align 8
  %4 = alloca ptr, align 8
  %5 = alloca ptr, align 8
  %6 = alloca i32, align 4
  %7 = getelementptr inbounds nuw %union.AVRefStructOpaque, ptr %3, i32 0, i32 0
  store ptr %0, ptr %7, align 8
  store ptr %1, ptr %4, align 8, !tbaa !243
  call void @llvm.lifetime.start.p0(i64 8, ptr %5) #9
  %8 = load ptr, ptr %4, align 8, !tbaa !243
  store ptr %8, ptr %5, align 8, !tbaa !136
  call void @llvm.lifetime.start.p0(i64 4, ptr %6) #9
  store i32 0, ptr %6, align 4, !tbaa !31
  br label %9

9:                                                ; preds = %20, %2
  %10 = load i32, ptr %6, align 4, !tbaa !31
  %11 = sext i32 %10 to i64
  %12 = icmp ult i64 %11, 80
  br i1 %12, label %14, label %13

13:                                               ; preds = %9
  call void @llvm.lifetime.end.p0(i64 4, ptr %6) #9
  br label %23

14:                                               ; preds = %9
  %15 = load ptr, ptr %5, align 8, !tbaa !136
  %16 = getelementptr inbounds nuw %struct.CoeffVLCs, ptr %15, i32 0, i32 1
  %17 = load i32, ptr %6, align 4, !tbaa !31
  %18 = sext i32 %17 to i64
  %19 = getelementptr inbounds [80 x %struct.VLC], ptr %16, i64 0, i64 %18
  call void @ff_vlc_free(ptr noundef %19)
  br label %20

20:                                               ; preds = %14
  %21 = load i32, ptr %6, align 4, !tbaa !31
  %22 = add nsw i32 %21, 1
  store i32 %22, ptr %6, align 4, !tbaa !31
  br label %9, !llvm.loop !293

23:                                               ; preds = %13
  call void @llvm.lifetime.end.p0(i64 8, ptr %5) #9
  ret void
}