; Function Attrs: cold nounwind optsize uwtable
define internal void @free_vlc_tables(ptr readnone captures(none) %0, ptr noundef %1) #1 {
  %3 = getelementptr inbounds nuw i8, ptr %1, i64 640
  br label %5

4:                                                ; preds = %5
  ret void

5:                                                ; preds = %2, %5
  %indvars.iv = phi i64 [ 0, %2 ], [ %indvars.iv.next, %5 ]
  %6 = getelementptr inbounds nuw [80 x %struct.VLC], ptr %3, i64 0, i64 %indvars.iv
  tail call void @ff_vlc_free(ptr noundef nonnull %6) #9
  %indvars.iv.next = add nuw nsw i64 %indvars.iv, 1
  %exitcond.not = icmp eq i64 %indvars.iv.next, 80
  br i1 %exitcond.not, label %4, label %5, !llvm.loop !264
}